(ilrsgd
LogisticRegressionSGD
p0
(dp1
S'mu'
p2
F0.02
sS'eta'
p3
F0.1
sS'weight'
p4
(lp5
F-0.08408136647511523
aF-0.04757128051499535
aF0.036248090372805214
aF-0.048503284796324576
aF-0.049604179585260436
aF-0.3536358685438068
aF-0.03891456465629989
aF-1.268123049794539
aF-0.047141886881573225
aF0.0
aF-0.044353227146605896
aF-0.061498466335559554
aF-0.05129079278704322
aF-0.09623121610744531
aF0.05845143539957481
aF-0.04439455399762729
aF-0.04986844203362917
aF-0.09707605907607106
aF-0.07267074976325492
aF0.0
aF-0.13479655850232408
aF-0.049074343243423225
aF0.0
aF0.0
aF-0.13037871577165247
aF-0.04973200976871111
aF0.00536061973535442
aF-0.09592991158907963
aF0.0
aF-0.1198523176859082
aF0.18463829210916277
aF-0.024297711864499284
aF-0.09417550905718203
aF-0.1682450126177692
aF-0.08762354554223785
aF-0.08927456711602011
aF-0.017886982882049384
aF-0.04999315909955529
aF0.004510972246648436
aF0.0
aF-0.040036023424587446
aF-0.04852988585754243
aF-0.04644425750438908
aF-0.09579573479792541
aF0.0
aF-0.03764557804194595
aF0.0
aF0.0
aF-0.04660949257745706
aF0.05619280802729259
aF0.0
aF-0.0491743293725581
aF-0.10250925875955803
aF-0.08029708290430704
aF0.06261088738150669
aF-0.049372506805940505
aF-0.06927767502213182
aF-0.14458641693003546
aF0.0
aF0.02190287216026862
aF0.03329709867840268
aF0.0036177426044449734
aF-0.208125741191165
aF-0.04455054113103779
aF0.0
aF-0.043022145717921484
aF-0.039677991753810635
aF0.0
aF0.06735831617082659
aF0.05036491148072641
aF-0.09690606402081266
aF0.0
aF0.0
aF-0.015721312831209262
aF0.0
aF0.0
aF0.057481586452874316
aF-0.049562587711025397
aF-0.025864138538946858
aF-0.006842037082423887
aF0.0
aF0.0
aF0.0
aF0.0
aF0.0
aF-0.03811545309449672
aF-0.040419563977871484
aF-0.03823342415064568
aF0.0
aF-0.048155121998806116
aF-0.07718682230479115
aF-0.04790052990654818
aF-0.04798255510486264
aF-0.0728021349758298
aF-0.2037818298750827
aF-0.049999822347032215
aF0.008133699108686568
aF0.0
aF0.019491289905683253
aF0.0
aF-0.09555289779045714
aF0.0
aF-0.1349415579170268
aF0.0
aF-0.043614604199830695
aF0.0
aF-0.11761642276896785
aF0.0
aF-0.04252862327863056
aF-0.04953958450382123
aF0.0
aF-0.09704114312293294
aF-0.09455785244888021
aF-0.17390065680169092
aF0.05302580407703647
aF-0.04187796854457515
aF-0.07149112546477131
aF-0.04672216681099298
aF-0.09399661471852623
aF-0.1251831739551424
aF-0.1761373069000657
aF-0.10365234197363396
aF-0.09025235478387356
aF0.0
aF-0.021702936606680896
aF0.0
aF0.0
aF-0.04476589796469055
aF0.06362464430418752
aF0.0
aF0.05196877885246834
aF0.0
aF-0.3111333918576459
aF-0.05014300814378045
aF0.0
aF-0.12293623587735367
aF0.0
aF0.0
aF-0.017237359135395095
aF-0.07878689179147258
aF-0.36735374096071105
aF-0.029422794614352064
aF-0.17574825277815292
aF0.1045442768369617
aF0.0
aF-0.19112066752776458
aF-0.0987558856146751
aF-0.38702914842442515
aF0.0
aF0.05105227161619024
aF-0.04903120170146458
aF-0.04695754203372095
aF0.0
aF-0.043167253001683004
aF-0.09217950460726348
aF0.0
aF-0.05007901457598811
aF0.0
aF0.012457441963014355
aF0.050420550057449914
aF0.0076640722140506115
aF-0.04483924023234544
aF-0.7173776067419477
aF0.05387678414513564
aF-0.04994026597609697
aF-0.27384283651709335
aF0.0
aF0.0
aF0.052060220836802645
aF-0.057360490934089105
aF0.0
aF0.0
aF-0.09815658766725072
aF-0.04596397002755828
aF-0.04849374632213236
aF-0.09363032110792516
aF0.0
aF-0.3674293861782056
aF-0.11146148048012777
aF-0.04934807073139566
aF-0.021262605501508294
aF-0.09532552893765339
aF0.0
aF-0.03378365039845821
aF-0.03708594232247692
aF-0.18296466116604662
aF-0.04550857607565312
aF0.0
aF-0.2033260148273027
aF-0.04524264203477919
aF0.0
aF-0.18965324747316345
aF-0.05
aF-0.10157600433756117
aF0.0
aF-0.046703794583144886
aF0.0
aF0.05952540296875626
aF-0.1274898010693241
aF0.0
aF-0.047268258262683
aF0.0
aF-0.027531917211699695
aF0.0
aF-0.047832329628266036
aF0.0
aF-0.047194524088567204
aF-0.04998132750372054
aF0.0
aF-0.06324046163147305
aF-0.010947662731742117
aF0.04864697187508564
aF0.0
aF-0.04725750915156632
aF-0.043983914229195974
aF0.0
aF0.0
aF-0.04686608327834621
aF-0.13961479274999994
aF-0.18320048294535243
aF-0.2272174280483498
aF-0.05494160224686581
aF-0.047457428743961014
aF-0.008360920787822052
aF-0.049304547361093125
aF0.0
aF-0.06897349112438945
aF-0.08699086746849993
aF0.007112741243383035
aF-0.047955579732653957
aF0.0
aF0.0
aF0.0
aF0.0
aF0.0
aF0.0
aF-0.04545249348626208
aF-0.04632351826620421
aF-0.0500000848779425
aF-0.2054321456641876
aF0.0
aF0.0
aF-0.01296124904691701
aF0.0008781882622570861
aF-0.09824687503727768
aF0.0
aF0.16305924546135214
aF0.0
aF-0.022629863231958418
aF0.0
aF-0.04965113512950935
aF0.0
aF-0.016485164870586207
aF0.0
aF-0.04263008186677871
aF0.0
aF-0.13413125025440545
aF-1.3860653849982625e-05
aF0.0
aF-0.0492314943994839
aF0.0
aF0.0
aF0.0
aF0.050530639773305054
aF-0.028465490645139
aF-0.03488131273509821
aF-0.03832215042374985
aF0.0
aF-0.048415249144790104
aF-0.04843768325811429
aF-0.03881490307399612
aF0.0
aF0.0
aF0.0
aF0.05094593539920701
aF-0.12139179068208426
aF0.0
aF0.0
aF-0.04565860521251759
aF0.0
aF0.0
aF-0.06382269030416378
aF-0.17142249927788836
aF0.0
aF-0.18726078257565704
aF-0.0499977956215613
aF0.0
aF0.0
aF0.0
aF-0.04714063468382236
aF-0.049507013416881865
aF0.05358181844462904
aF0.0
aF-0.04856265984356464
aF0.0
aF0.062008898794264106
aF0.0
aF-0.04550609230928059
aF-0.001147265240028834
aF-0.08750555490096124
aF0.0
aF-0.04937559489105223
aF0.0
aF0.0032249791941395614
aF-0.04867866747946186
aF0.0
aF-0.024690202270905494
aF0.0
aF0.0
aF0.0
aF0.0
aF-0.07354894255984551
aF0.0
aF-0.04985811207089999
aF-0.04219109268740613
aF0.00433115374530113
aF0.04991395886881758
aF-0.016143485638454108
aF-0.04866044844696796
aF0.0
aF0.0
aF0.0
aF-0.04751926353631425
aF0.0
aF-0.2277823734728087
aF0.0
aF-0.04965772870496579
aF0.0
aF0.0
aF-0.09707582650105072
aF0.0
aF0.0
aF-0.04969282574520567
aF0.0
aF-0.000754575863008318
aF-0.045440195876747386
aF-0.04999964571075961
aF0.0
aF0.0
aF0.0
aF-0.02414979889017646
aF0.0
aF-0.049697246400398055
aF0.050046086886198576
aF-0.04315428059012079
aF0.0
aF-0.03127277714511587
aF0.0
aF0.0
aF0.0
aF-0.2712142072484629
aF-0.09350493401904862
aF0.0
aF0.0
aF-0.025975237516790723
aF-0.00416128720677952
aF-0.2076217646558167
aF-0.10738428530883633
aF-0.05
aF0.0
aF-0.049581537077003995
aF0.05435865683195632
aF-0.049769587093414426
aF0.0
aF0.0
aF0.0
aF0.0
aF0.0035706762986795378
aF0.0
aF0.0
aF-0.25496262784771817
aF0.0626271934468618
aF0.0
aF-0.010498812202338817
aF0.0
aF0.0
aF0.0
aF0.0
aF0.0
aF-0.00035578981057531213
aF-0.004203362620953795
aF0.0
aF0.05388028829571865
aF-0.049389009572346376
aF-0.04999794187806856
aF-0.044384657990927834
aF-0.18633242519434995
aF0.0
aF0.0
aF-0.04872999160598286
aF0.0
aF0.0
aF0.0
aF-0.0485311054276831
aF-0.2544596362376543
aF-0.023409693538828824
aF-0.04914753532206365
aF-0.09541158537942898
aF0.0
aF0.0
aF0.0
aF0.0
aF0.0
aF0.0
aF0.0058651619680781045
aF0.0
aF-0.049379836700663426
aF0.0
aF0.0
aF0.0
aF0.0
aF-0.04967844291990862
aF0.0
aF-0.04482323585513328
aF0.0
aF0.05078149250265194
aF0.0
aF-0.04999952465863821
aF-0.09015569854322464
aF-0.0077285025432901
aF0.0
aF0.0
aF0.0
aF0.0
aF0.054071177371245276
aF0.0
aF0.0
aF-0.30916652598983274
aF-0.04305577594469238
aF-0.02682089124394476
aF0.0
aF0.0
aF0.0
aF0.0
aF0.0
aF0.0
aF0.0
aF0.0
aF0.0
aF-0.010814275240783187
aF0.011671797227915878
aF0.0
aF0.0
aF-0.0004011893285895015
aF-0.25309934667360556
aF-0.048750770953143036
aF0.05255991947662193
aF0.0
aF0.0
aF-0.04761616912544642
aF-0.09684673480337229
aF0.0
aF-0.25783705296323567
aF-0.043439330536632785
aF0.0
aF0.0
aF0.0
aF-0.11195318259327983
aF0.0
aF-0.02268589518543415
aF0.0
aF0.0
aF0.0
aF0.0
aF0.0
aF0.0
aF0.0
aF-0.024264254138631522
aF0.0
aF0.0
aF-0.045542624240432
aF0.0
aF0.0
aF0.0
aF-0.049651355803018896
aF-0.02484336584833822
aF0.0
aF0.0
aF0.0
aF0.0
aF0.0
aF0.0
aF0.05391459053940757
aF-0.08931256653100345
aF-0.009896979384246083
aF0.0
aF-0.04888164819515183
aF0.0
aF-0.04377600223210851
aF-0.0027838541211839345
aF0.0
aF0.0
aF0.0
aF-0.049685923706192986
aF0.0
aF0.0
aF-0.03326482731242937
aF0.0
aF0.0
aF-0.0493805170485174
aF0.0
aF-0.02047885099910163
aF-0.0655620096532261
aF0.05837835393408827
aF0.04999875504489766
aF0.0
aF-0.0497720755784956
aF-0.002975028459445231
aF0.0
aF0.0
aF0.054120118190196444
aF0.0
aF0.0
aF0.0
aF0.0
aF0.0
aF0.0
aF0.0
aF0.0
aF0.0
aF-0.1338802108555859
aF-0.11792626576056615
aF-0.0248309354426169
aF0.0
aF-0.07961348090557452
aF-0.04870226475765955
aF0.0
aF0.0
aF0.0
aF0.0
aF0.0
aF-0.04999970877195064
aF0.0
aF0.0
aF0.0005728648664400852
aF0.0
aF-0.02548950897032083
aF0.0
aF0.0
aF0.02557512933521975
aF0.0
aF-0.09848383823722127
aF0.0
aF0.0
aF-0.020031379234834987
aF-0.04717562140755256
aF0.0011096269305749598
aF0.0
aF0.0
aF-0.04969266007628606
aF0.0
aF0.0
aF0.0
aF0.0
aF0.0
aF-0.11985506230957299
aF0.0
aF0.0
aF0.0
aF0.0
aF0.0
aF0.0
aF-0.036918286793101905
aF-0.5814607478018997
aF0.0
aF0.0
aF0.0
aF0.0
aF-0.049939728940956024
aF-0.0475716706940834
aF-0.00021640189586705338
aF-0.019306932414121212
aF-0.1260030901064992
aF0.0
aF0.0
aF0.0
aF0.0
aF-0.00144439262962621
aF0.0
aF-0.34197641451837923
aF0.0
aF0.0
aF-0.09846045359327009
aF0.0
aF0.0
aF0.0
aF-0.04637655826187516
aF-0.049886776222496605
aF0.0
aF-0.0243489038789821
aF-0.041255018154518694
aF0.0
aF-0.04955219798596016
aF0.0
aF0.011512361955752354
aF0.0
aF-0.11172639586271435
aF-0.09126758628716379
aF0.0
aF-0.049661872479417946
aF-0.049516369486247755
aF0.0
aF0.0
aF0.0
aF-0.024850069243110093
aF-0.07262642045714487
aF-0.22113602187475617
aF0.015561416594806499
aF0.0
aF0.0049805887393306394
aF0.0
aF0.0
aF-0.18882263175033664
aF-0.03250996965310811
aF-0.11750601254190454
aF0.0
aF0.0
aF-0.04914894836039459
aF-0.03598674959477077
aF0.0
aF0.0
aF0.0
aF0.0
aF0.055091115233066125
aF0.0
aF0.0
aF-0.14998773827014136
aF0.0
aF0.0
aF-0.2306087900701479
aF-0.033858651232663343
aF-0.04779329830575981
aF0.0
aF0.0
aF-0.05
aF0.0
aF0.0
aF-0.04348783152600069
aF0.0
aF0.0
aF0.0
aF0.0
aF0.0
aF0.0
aF0.0
aF0.04129907718981675
aF0.0
aF-0.1425915469298936
aF-0.04974266021803706
aF-0.005068244299093863
aF0.0
aF-0.045147161581266054
aF0.0
aF0.0
aF-0.024930440706161724
aF-0.04735876548070374
aF0.0
aF0.0004958385653085692
aF0.05044721438124105
aF0.0585516292979953
aF0.10553358450361959
aF0.0009135367663448413
aF0.0
aF0.0
aF-0.04961469827561436
aF0.0
aF-0.08801119948462452
aF0.0
aF0.0
aF-1.0894109100986273
aF0.0
aF0.0
aF0.0
aF0.01965682183283275
aF0.0
aF0.0
aF0.0
aF-0.022972928622403216
aF0.0
aF0.11315843013744764
aF0.0
aF0.0
aF0.0
aF0.0
aF0.0
aF0.0
aF0.0
aF0.0
aF-0.22033909518779915
aF0.0
aF-0.009776015919517617
aF0.0
aF0.0
aF0.0
aF0.006478627926549376
aF-0.09560202133339618
aF-0.27257888068987707
aF0.0
aF0.0
aF0.0
aF0.0
aF0.0
aF-0.04945813767705585
aF0.0
aF0.0
aF0.0
aF0.0
aF-0.049791419793531896
aF0.050138798001468976
aF0.0
aF0.0
aF0.0
aF0.0
aF-0.04816604910730163
aF0.0
aF0.0
aF0.0
aF0.0
aF0.0
aF-0.024327179458149245
aF-0.02515675230824881
aF-0.016255898176603525
aF0.0
aF-0.031597948115094386
aF-0.15740536578159375
aF0.0
aF0.0
aF-0.024803919026007832
aF0.0
aF0.050232185851986744
aF0.0
aF0.04234570339120286
aF-0.04966567815325857
aF-0.04721429267424761
aF0.0
aF-0.10231609484044844
aF0.0
aF0.0
aF-0.047650664289640016
aF-0.048382258908017464
aF0.0
aF0.0
aF-2.3998103926551575e-05
aF0.0
aF0.0
aF-0.0500005877317927
aF-0.23319008743037262
aF0.0
aF0.0
aF0.0
aF0.0
aF0.0
aF-0.0798195569195663
aF-0.4329086057910567
aF-0.04940473341844072
aF0.0
aF0.0
aF0.0
aF-0.049503340485006604
aF-0.04915266017864037
aF-0.044020610510897534
aF0.0
aF0.0
aF0.0
aF-0.050000004854941354
aF0.0
aF0.0
aF0.0
aF0.0
aF0.0
aF0.0
aF-0.0014320209201811101
aF-0.4446377996159964
aF0.0
aF0.0
aF0.0
aF-0.041340108702586253
aF-0.21285530618217371
aF0.0
aF0.0
aF0.0
aF0.0
aF0.0
aF0.0
aF-0.048597823773522036
aF0.0
aF-0.022664337306458306
aF0.0
aF0.0
aF0.0
aF-0.4035422060385495
aF0.0
aF0.0
aF-0.0959361978324764
aF0.0
aF-0.04744156412729876
aF-0.11007510057714875
aF0.0
aF0.0
aF0.0
aF0.0
aF0.0
aF0.0
aF-0.018920285991484972
aF0.0
aF-0.025
aF-0.046877756766434076
aF-0.05000002263667232
aF0.0
aF0.0
aF-0.015744492729302277
aF-0.09730689409526538
aF0.0
aF-0.11792852736805849
aF0.0
aF0.02635711049448257
aF-0.023056904153686723
aF-0.11929532776419784
aF-0.045779750080850556
aF0.0
aF-0.06667361150038681
aF0.0
aF0.0
aF0.0
aF0.0
aF0.0
aF0.0
aF0.0
aF0.0
aF-0.4004022620964641
aF0.0
aF0.0
aF0.0
aF0.0
aF0.0
aF0.0
aF-0.04874374184237422
aF0.0
aF0.0
aF0.0
aF0.0
aF0.0
aF-0.07803065254475972
aF0.0
aF0.0
aF0.0
aF0.0
aF0.0
aF0.0
aF0.0
aF0.0
aF-0.047084272356565156
aF-0.09875073331459089
aF0.0
aF0.0
aF0.0
aF-0.04781878202055649
aF0.0
aF0.0
aF-0.024922257253942065
aF-0.05895376422531429
aF0.0
aF-0.19660969214358345
aF0.0
aF0.0
aF-0.024408835959308484
aF-0.08246564491373838
aF0.0
aF0.0
aF0.0
aF0.0
aF0.0
aF0.0
aF-0.2902754446147902
aF-0.04999445166576675
aF0.0
aF0.0
aF0.0
aF0.0
aF0.0
aF-0.05000067826784441
aF0.0
aF0.0
aF-0.007189568722742114
aF0.0
aF0.0
aF0.0
aF0.0
aF0.0
aF0.0
aF0.0
aF0.0
aF0.0
aF0.0
aF0.0
aF0.0
aF0.0
aF0.0
aF0.0
aF0.0
aF-0.5456061020490593
aF0.0
aF0.0
aF0.0
aF0.0
aF-0.09723364403111023
aF0.0
aF0.0
aF0.0
aF0.0
aF0.0
aF0.0
aF0.0
aF0.0
aF0.0
aF0.0
aF0.0
aF0.0
aF0.0
aF0.0
aF-0.04996847204583725
aF-0.02403720039680163
aF0.0
aF0.0
aF0.0
aF0.0
aF-0.09719486792499914
aF-0.050000000001076364
aF0.0
aF0.0
aF0.0
aF0.0
aF0.0
aF0.0
aF0.0
aF0.0
aF0.05000515366751765
aF0.0
aF0.0
aF0.0
aF0.0
aF0.0
aF0.0
aF0.0
aF0.0
aF0.0
aF0.0
aF-0.0009324900044145979
aF-0.04981170062799896
aF0.0
aF0.0
aF0.0
aF0.0
aF0.0
aF0.0
aF0.0
aF0.0
aF0.0
aF0.0
aF0.0
aF0.0
aF0.0
aF0.0
aF0.0
aF0.0
aF0.0
aF0.0
aF0.0
aF0.0
aF0.0
aF0.0
aF0.0
aF0.0
aF0.0
aF0.0
aF0.0
aF0.0
aF-0.048745506921238524
aF0.0
aF0.0
aF-0.049992572372959426
aF-0.04937907996080092
aF0.0
aF-0.09798553025857054
aF0.0
aF0.0
aF0.0
aF0.0
aF0.0
aF0.0
aF0.0
aF0.0
aF0.0
aF0.0
aF0.0
aF0.0
aF0.0
aF0.0
aF0.0
aF0.0
aF0.0
aF0.0
aF0.0
aF0.0
aF-0.05000002263667232
aF0.0
aF0.0
aF0.0
aF0.0
aF0.0
aF0.0
aF-0.049998995970416266
aF0.0
aF0.0
aF0.0
aF0.0
aF0.0
aF-0.08260446408387731
aF-0.04549023479674484
aF-0.027060894414241244
aF0.0
aF0.0
aF0.0
aF0.0
aF0.0
aF0.0
aF-0.05000004526857768
aF0.0
aF0.0
aF-0.0017781455633282036
aF0.0
aF0.0
aF0.0
aF0.0
aF0.0
aF0.0
aF0.0
aF0.0
aF-0.0001331622736955758
aF0.0
aF0.0
aF0.0
aF0.0
aF0.0
aF0.0
aF0.0
aF0.0
aF0.0
aF0.0
aF0.0
aF0.0
aF0.0
aF0.0
aF0.0
aF0.0
aF0.0
aF0.0
aF0.0
aF0.0
aF-0.05000125888423203
aF0.0
aF0.0
aF0.0
aF0.0
aF0.0
aF0.0
aF0.0
aF0.0
aF0.0
aF-0.031597701498509365
aF0.0
aF0.0
aF0.0
aF0.0
aF0.0
aF0.0
aF0.0
aF-0.049999993536430094
aF-0.01624993085119768
aF0.0
aF0.0
aF0.0
aF0.0
aF0.0
aF0.0
aF0.0
aF0.0
aF0.0
aF0.0
aF0.0
aF0.0
aF0.0
aF-0.05
aF0.0
aF0.0
aF0.0
aF-0.04999865044628168
aF-9.332897023019765
aF-0.800586978137161
aF0.0
aF0.0
aF0.0
aF0.0
aF0.0
aF0.0
aF0.0
aF0.0
aF0.0
aF0.0
aF0.0
aF0.0
aF0.0
aF0.0
aF0.0
aF0.0
aF0.0
aF0.0
aF0.0
aF0.0
aF-0.04968489092824921
aF0.0
aF0.0
aF0.0
aF0.0
aF0.0
aF0.0
aF0.0
aF0.0
aF0.0
aF0.0
aF0.0
aF0.0
aF0.0
aF0.0
aF0.0
aF0.0
aF0.0
aF-0.049373206147700015
aF0.0
aF0.0
aF0.0
aF0.0
aF0.0
aF0.0
aF0.0
aF0.0
aF0.0
aF0.0
aF0.0
aF0.0
aF0.0
aF0.0
aF0.0
aF0.0
aF0.0
aF0.0
aF0.0
aF0.0
aF0.0
aF0.0
aF0.0
aF0.0
aF0.0
aF0.0
aF0.0
aF0.0
aF0.0
aF0.0
aF0.0
aF0.0
aF0.0
aF0.0
aF0.0
aF0.0
aF0.0
aF0.0
aF0.0
aF0.0
aF0.0
aF0.0
aF0.0
aF0.0
aF-0.04985533881533228
aF0.0
aF-0.049687504432837426
aF0.0
aF0.0
aF0.0
aF0.0
aF0.0
aF0.0
aF0.0
aF0.0
aF0.0
aF0.0
aF0.0
aF0.0
aF0.0
aF0.050000475341361796
aF0.0
aF0.0
aF0.0
aF0.0
aF0.0
aF0.0
aF0.0
aF0.0
aF0.0
aF0.0
aF0.0
aF0.0
aF0.0
aF-0.012495095258052648
aF0.0
aF0.0
aF0.0
aF0.0
aF0.0
aF0.0
aF0.0
aF-0.05
aF0.0
aF0.0
aF0.0
aF0.0
aF0.0
aF0.0
aF0.0
aF0.0
aF0.0
aF0.0
aF0.0
aF0.0
aF0.0
aF-0.14630500679294017
aF0.0
aF0.0
aF0.0
aF0.0
aF0.0
aF0.0
aF0.0
aF0.0
aF0.0
aF0.0
aF0.0
aF0.0
aF0.0
aF0.0
aF0.0
aF0.0
aF0.0
aF0.0
aF0.0
aF0.0
aF0.0
aF0.0
aF0.0
aF0.0
aF0.0
aF0.0
aF0.0
aF0.0
aF0.0
aF0.0
aF0.0
aF0.0
aF0.0
aF0.0
aF0.0
aF0.0
aF0.0
aF0.0
aF0.0
aF0.0
aF0.0
aF0.0
aF0.0
aF-0.04997413256478124
aF0.0
aF0.0
aF0.0
aF0.0
aF0.0
aF0.0
aF0.0
aF0.0
aF0.0
aF0.0
aF0.0
aF0.0
aF0.0
aF0.0
aF0.0
aF0.0
aF0.0
aF0.0
aF0.0
aF0.0
aF0.0
aF0.0
aF0.0
aF0.0
aF0.0
aF0.0
aF0.0
aF0.0
aF0.0
aF0.0
aF0.0
aF0.0
aF0.0
aF0.0
aF-0.05
aF0.0
aF0.0
aF0.0
aF0.0
aF0.0
aF0.0
aF0.0
aF0.0
aF0.0
aF0.0
aF0.0
aF0.0
aF0.0
aF0.0
aF0.0
aF0.0
aF0.0
aF-0.024692277238046196
aF0.0
aF0.0
aF0.0
aF0.0
aF0.0
aF0.0
aF0.0
aF0.0
aF0.0
aF0.0
aF0.0
aF0.0
aF0.0
aF0.0
aF0.0
aF0.0
aF0.0
aF0.0
aF0.0
aF0.0
aF0.0
aF0.0
aF0.0
aF-0.04999891233179573
aF0.0
aF0.0
aF0.0
aF0.0
aF0.0
aF0.0
aF0.0
aF0.0
aF0.0
aF0.0
aF0.0
aF0.0
aF0.0
aF0.0
aF0.0
aF0.0
aF0.0
aF0.0
aF0.0
aF0.0
aF-0.07453825213592488
aF0.0
aF0.0
aF0.0
aF0.0
aF-0.04999908291278561
aF0.0
aF0.0
aF0.0
aF-0.024685005348091305
aF0.0
aF0.0
aF0.0
aF0.0
aF0.0
aF0.0
aF0.0
aF0.0
aF0.0
aF0.0
aF0.0
aF0.0
aF0.0
aF0.0
aF0.0
aF0.0
aF0.0
aF0.0
aF0.0
aF0.0
aF0.0
aF0.0
aF0.0
aF0.0
aF0.0
aF0.0
aF0.0
aF0.0
aF0.0
aF0.0
aF0.0
aF0.0
aF0.0
aF0.0
aF0.0
aF0.0
aF0.0
aF0.0
aF0.0
aF0.0
aF0.0
aF0.0
aF0.0
aF0.0
aF-0.025
aF0.0
aF0.0
aF0.0
aF0.0
aF-0.024839827579898485
aF0.0
aF0.0
aF0.0
aF0.0
aF0.0
aF-0.1475781537589196
aF0.0
aF0.0
aF0.0
aF0.0
aF0.0
aF0.0
aF0.0
aF0.0
aF0.0
aF0.0
aF0.0
aF0.0
aF0.0
aF0.0
aF0.009999673569906121
aF0.0
aF0.0
aF0.0
aF0.0
aF0.0
aF0.0
aF0.0
aF0.0
aF0.0
aF0.0
aF0.0
aF0.0
aF0.0
aF0.0
aF0.0
aF0.0
aF0.0
aF0.0
aF0.0
aF0.0
aF0.0
aF0.0
aF0.0
aF0.0
aF0.0
aF0.0
aF0.0
aF0.0
aF0.0
aF0.0
aF0.0
aF0.0
aF0.0
aF0.0
aF0.0
aF0.0
aF0.0
aF0.0
aF0.0
aF0.0
aF0.0
aF-0.049219117270383944
aF0.0
aF0.0
aF0.0
aF0.0
aF0.0
aF0.0
aF0.0
aF0.0
aF0.0
aF0.0
aF0.0
aF0.0
aF0.0
aF0.0
aF0.0
aF0.0
aF0.0
aF-0.04999807103318593
aF0.0
aF0.0
aF0.0
aF0.0
aF0.0
aF0.0
aF0.0
aF0.0
aF0.0
aF0.0
aF0.0
aF0.0
aF0.0
aF0.0
aF0.0
aF0.0
aF0.0
aF0.0
aF0.0
aF0.0
aF0.0
aF0.0
aF0.0
aF0.0
aF0.0
aF0.0
aF0.0
aF0.0
aF0.0
aF0.0
aF0.0
aF0.0
aF0.0
aF0.0
aF0.0
aF0.0
aF0.0
aF0.0
aF0.0
aF-0.04972139418308594
aF0.0
aF0.0
aF-0.024999640576932925
aF0.0
aF0.0
aF0.0
aF0.0
aF0.0
aF0.0
aF0.0
aF0.0
aF0.0
aF0.0
aF0.0
aF0.0
aF0.0
aF0.0
aF0.0
aF0.0
aF0.0
aF0.0
aF0.0
aF0.0
aF0.0
aF0.0
aF0.0
aF0.0
aF0.0
aF0.0
aF0.0
aF0.0
aF0.0
aF0.0
aF0.0
aF0.0
aF0.0
aF0.0
aF0.0
aF0.0
aF0.0
aF0.0
aF0.0
aF-0.0332870917000916
aF0.0
aF0.0
aF0.0
aF0.0
aF0.0
aF0.0
aF-0.04999858714526987
aF0.0
aF0.0
aF0.0
aF0.0
aF0.0
aF0.0
aF0.0
aF0.0
aF0.0
aF-0.05000001697932806
aF0.0
aF0.0
aF0.0
aF0.0
aF0.0
aF0.0
aF0.0
aF0.0
aF0.0
aF0.0
aF0.0
aF0.0
aF0.0
aF0.0
aF0.0
aF0.0
aF0.0
aF0.0
aF0.0
aF0.0
aF0.0
aF-0.016665773136441478
aF0.0
aF0.0
aF0.0
aF0.0
aF0.0
aF0.0
aF0.0
aF0.0
aF0.0
aF0.0
aF0.0
aF0.0
aF0.0
aF-0.2379708109459061
aF0.0
aF0.0
aF0.0
aF0.0
aF-0.05000057157200058
aF0.0
aF0.0
aF0.0
aF0.0
aF0.0
aF0.0
aF0.0
aF0.0
aF0.0
aF0.0
aF0.0
aF0.0
aF0.0
aF0.0
aF0.0
aF0.0
aF0.0
aF0.0
aF0.0
aF0.0
aF0.0
aF0.0
aF-0.04999934962838302
aF0.0
aF0.0
aF0.0
aF0.0
aF0.0
aF0.0
aF0.0
aF0.0
aF0.0
aF0.0
aF0.0
aF0.0
aF0.0
aF0.0
aF0.0
aF0.0
aF0.0
aF0.0
aF0.0
aF0.0
aF0.0
aF0.0
aF0.0
aF0.0
aF0.0
aF0.0
aF0.0
aF0.0
aF0.0
aF0.0
aF0.0
aF0.0
aF0.0
aF0.0
aF0.0
aF0.0
aF0.0
aF-0.0055555442398878
aF0.0
aF0.0
aF0.0
aF0.0
aF0.0
aF0.0
aF0.0
aF0.0
aF0.0
aF0.0
aF0.0
aF0.0
aF0.0
aF0.0
aF0.0
aF0.0
aF0.0
aF0.0
aF0.0
aF0.0
aF0.0
aF0.0
aF0.0
aF0.0
aF0.0
aF0.0
aF0.0
aF0.0
aF0.0
aF0.0
aF0.0
aF0.0
aF0.0
aF0.0
aF0.0
aF0.0
aF0.0
aF0.0
aF0.0
aF0.0
aF0.0
aF0.0
aF0.0
aF-0.05
aF0.0
aF0.0
aF0.0
aF0.0
aF0.0
aF0.0
aF-0.04998950374331007
aF0.0
aF0.0
aF0.0
aF0.0
aF0.0
aF0.0
aF0.0
aF0.0
aF0.0
aF0.0
aF0.0
aF0.0
aF0.0
aF0.0
aF0.0
aF0.0
aF0.0
aF0.0
aF0.0
aF0.0
aF0.0
aF0.0
aF0.0
aF0.0
aF0.0
aF0.0
aF0.0
aF0.0
aF0.0
aF0.0
aF0.0
aF0.0
aF0.0
aF0.0
aF0.0
aF0.0
aF0.0
aF0.0
aF0.0
aF0.0
aF0.0
aF0.0
aF0.0
aF0.0
aF0.0
aF0.0
aF0.0
aF0.0
aF0.0
aF0.0
aF0.0
aF0.0
aF0.0
aF0.0
aF0.0
aF0.0
aF0.0
aF0.0
aF0.0
aF0.0
aF0.0
aF0.0
aF0.0
aF0.0
aF0.0
aF0.0
aF0.0
aF0.0
aF0.0
aF0.0
aF0.0
aF0.0
aF0.0
aF0.0
aF0.0
aF0.0
aF0.0
aF0.0
aF0.0
aF0.0
aF0.0
aF0.0
aF0.0
aF0.0
aF0.0
aF0.0
aF0.0
aF0.0
aF0.0
aF0.0
aF0.0
aF0.0
aF0.0
aF0.0
aF0.0
aF0.0
aF0.0
aF0.0
aF0.0
aF0.0
aF0.0
aF0.0
aF0.0
aF0.0
aF0.0
aF-0.050001434856519617
aF0.0
aF0.0
aF0.0
aF0.0
aF0.0
aF0.0
aF0.0
aF0.0
aF0.0
aF0.0
aF0.0
aF0.0
aF0.0
aF0.0
aF0.0
aF0.0
aF0.0
aF0.0
aF0.0
aF0.0
aF0.0
aF0.0
aF0.0
aF0.0
aF0.0
aF0.0
aF0.0
aF0.0
aF0.0
aF0.0
aF0.0
aF0.0
aF0.0
aF0.0
aF0.0
aF0.0
aF0.0
aF0.0
aF0.0
aF0.0
aF0.0
aF0.0
aF0.0
aF0.0
aF0.0
aF0.0
aF0.0
aF0.0
aF0.0
aF0.0
aF0.0
aF0.0
aF0.0
aF0.0
aF0.0
aF0.0
aF0.0
aF0.0
aF0.0
aF0.0
aF0.0
aF0.0
aF0.0
aF0.0
aF0.0
aF0.0
aF0.0
aF0.0
aF0.0
aF0.0
aF0.0
aF0.0
aF0.0
aF0.0
aF0.0
aF0.0
aF0.0
aF0.0
aF0.0
aF0.0
aF0.0
aF0.0
aF0.0
aF-0.005551534552421863
aF0.0
aF0.0
aF0.0
aF0.0
aF0.0
aF0.0
aF0.0
aF0.0
aF0.0
aF0.0
aF0.0
aF0.0
aF0.0
aF0.0
aF0.0
aF0.0
aF0.0
aF0.0
aF0.0
aF0.0
aF0.0
aF0.0
aF0.0
aF0.0
aF0.0
aF0.0
aF0.0
aF0.0
aF0.0
aF0.0
aF0.0
aF0.0
aF0.0
aF0.0
aF0.0
aF0.0
aF0.0
aF0.0
aF0.0
aF0.0
aF0.0
aF0.0
aF-0.05000091864924351
aF0.0
aF0.0
aF0.0
aF0.0
aF0.0
aF0.0
aF0.0
aF0.0
aF0.0
aF0.0
aF0.0
aF0.0
aF0.0
aF0.0
aF0.0
aF0.0
aF0.0
aF0.0
aF0.0
aF0.0
aF0.0
aF0.0
aF0.0
aF0.0
aF0.0
aF0.0
aF0.0
aF0.0
aF0.0
aF0.0
aF0.0
aF0.0
aF0.0
aF0.0
aF0.0
aF0.0
aF0.0
aF0.0
aF0.0
aF0.0
aF0.0
aF0.0
aF0.0
aF0.0
aF0.0
aF0.0
aF0.0
aF0.0
aF0.0
aF0.0
aF0.0
aF0.0
aF0.0
aF0.0
aF0.0
aF0.0
aF0.0
aF0.0
aF0.0
aF0.0
aF0.0
aF0.0
aF0.0
aF0.0
aF0.0
aF0.0
aF0.0
aF0.0
aF0.0
aF0.0
aF0.0
aF0.0
aF0.0
aF0.0
aF0.0
aF0.0
aF0.0
aF0.0
aF0.0
aF0.0
aF0.0
aF0.0
aF0.0
aF0.0
aF0.0
aF0.0
aF0.0
aF0.0
aF0.0
aF0.0
aF0.0
aF0.0
aF0.0
aF0.0
aF0.0
aF0.0
aF0.0
aF0.0
aF0.0
aF0.0
aF0.0
aF0.0
aF0.0
aF0.0
aF0.0
aF0.0
aF0.0
aF0.0
aF0.0
aF0.0
aF0.0
aF0.0
aF0.0
aF0.0
aF0.0
aF0.0
aF0.0
aF0.0
aF0.0
aF0.0
aF0.0
aF0.0
aF0.0
aF0.0
aF0.0
aF0.0
aF0.0
aF0.0
aF0.0
aF0.0
aF0.0
aF0.0
aF0.0
aF0.0
aF0.0
aF0.0
aF0.0
aF0.0
aF0.0
aF0.0
aF0.0
aF0.0
aF0.0
aF0.0
aF0.0
aF0.0
aF0.0
aF0.0
aF0.0
aF0.0
aF0.0
aF0.0
aF0.0
aF0.0
aF0.0
aF0.0
aF0.0
aF0.0
aF0.0
aF0.0
aF0.0
aF0.0
aF0.0
aF0.0
aF0.0
aF0.0
aF0.0
aF0.0
aF0.0
aF0.0
aF0.0
aF0.0
aF0.0
aF0.0
aF0.0
aF0.0
aF0.0
aF0.0
aF0.0
aF0.0
aF0.0
aF0.0
aF0.0
aF0.0
aF0.0
aF0.0
aF0.0
aF0.0
aF0.0
aF0.0
aF0.0
aF0.0
aF0.0
aF0.0
aF0.0
aF0.0
aF0.0
aF0.0
aF0.0
aF0.0
aF0.0
aF0.0
aF0.0
aF0.0
aF0.0
aF0.0
aF0.0
aF0.0
aF0.0
aF0.0
aF0.0
aF0.0
aF0.0
aF0.0
aF0.0
aF0.0
aF0.0
aF0.0
aF0.0
aF0.0
aF0.0
aF0.0
aF0.0
aF0.0
aF0.0
aF0.0
aF0.0
aF0.0
aF0.0
aF0.0
aF0.0
aF0.0
aF0.0
aF0.0
aF0.0
aF0.0
aF0.0
aF0.0
aF0.0
aF0.0
aF0.0
aF0.0
aF0.0
aF0.0
aF0.0
aF0.0
aF0.0
aF0.0
aF0.0
aF0.0
aF0.0
aF0.0
aF0.0
aF0.0
aF0.0
aF0.0
aF0.0
aF0.0
aF0.0
aF0.0
aF0.0
aF0.0
aF0.0
aF0.0
aF0.0
aF0.0
aF0.0
aF0.0
aF0.0
aF0.0
aF0.0
aF0.0
aF0.0
aF0.0
aF0.0
aF0.0
aF-0.050000000000204686
aF0.0
aF0.0
aF0.0
aF0.0
aF0.0
aF0.0
aF0.0
aF0.0
aF0.0
aF0.0
aF0.0
aF0.0
aF0.0
aF0.0
aF0.0
aF0.0
aF0.0
aF0.0
aF0.0
aF0.0
aF0.0
aF0.0
aF0.0
aF0.0
aF0.0
aF0.0
aF0.0
aF0.0
aF0.0
aF0.0
aF0.0
aF0.0
aF0.0
aF0.0
aF0.0
aF0.0
aF0.0
aF0.0
aF0.0
aF0.0
aF0.0
aF0.0
aF0.0
aF0.0
aF0.0
aF0.0
aF0.0
aF0.0
aF0.0
aF0.0
aF0.0
aF0.0
aF0.0
aF0.0
aF0.0
aF0.0
aF0.0
aF0.0
aF0.0
aF0.0
aF0.0
aF0.0
aF0.0
aF0.0
aF0.0
aF0.0
aF0.0
aF0.0
aF0.0
aF0.0
aF0.0
aF0.0
aF0.0
aF0.0
aF0.0
aF0.0
aF0.0
aF0.0
aF0.0
aF0.0
aF0.0
aF0.0
aF0.0
aF0.0
aF0.0
aF0.0
aF0.0
aF0.0
aF0.0
aF0.0
aF0.0
aF0.0
aF0.0
aF0.0
aF0.0
aF0.0
aF0.0
aF0.0
aF0.0
aF0.0
aF0.0
aF0.0
aF0.0
aF0.0
aF0.0
aF0.0
aF0.0
aF0.0
aF0.0
aF0.0
aF0.0
aF0.0
aF0.0
aF0.0
aF0.0
aF0.0
aF0.0
aF0.0
aF0.0
aF0.0
aF0.0
aF0.0
aF0.0
aF0.0
aF0.0
aF0.0
aF0.0
aF0.0
aF0.0
aF0.0
aF0.0
aF0.0
aF0.0
aF0.0
aF0.0
aF0.0
aF0.0
aF0.0
aF0.0
aF0.0
aF0.0
aF0.0
aF0.0
aF0.0
aF0.0
aF0.0
aF0.0
aF0.0
aF0.0
aF0.0
aF0.0
aF0.0
aF0.0
aF0.0
aF0.0
aF0.0
aF0.0
aF0.0
aF0.0
aF0.0
aF0.0
aF0.0
aF0.0
aF0.0
aF0.0
aF0.0
aF0.0
aF0.0
aF0.0
aF0.0
aF0.0
aF0.0
aF0.0
aF0.0
aF0.0
aF0.0
aF0.0
aF0.0
aF0.0
aF0.0
aF0.0
aF0.0
aF0.0
aF0.0
aF0.0
aF0.0
aF0.0
aF0.0
aF0.0
aF0.0
aF0.0
aF0.0
aF0.0
aF0.0
aF0.0
aF0.0
aF0.0
aF0.0
aF0.0
aF0.0
aF0.0
aF0.0
aF0.0
aF0.0
aF0.0
aF0.0
aF0.0
aF0.0
aF0.0
aF0.0
aF0.0
aF0.0
aF0.0
aF0.0
aF0.0
aF0.0
aF0.0
aF0.0
aF0.0
aF0.0
aF0.0
aF0.0
aF0.0
aF0.0
aF0.0
aF0.0
aF0.0
aF0.0
aF0.0
aF0.0
aF0.0
aF0.0
aF0.0
aF0.0
aF0.0
aF0.0
aF0.0
aF0.0
aF0.0
aF0.0
aF0.0
aF0.0
aF0.0
aF0.0
aF0.0
aF0.0
aF0.0
aF0.0
aF0.0
aF0.0
aF0.0
aF0.0
aF0.0
aF0.0
aF0.0
aF0.0
aF0.0
aF0.0
aF0.0
aF0.0
aF0.0
aF0.0
aF0.0
aF0.0
aF0.0
aF0.0
aF0.0
aF0.0
aF0.0
aF0.0
aF0.0
aF0.0
aF0.0
aF0.0
aF0.0
aF0.0
aF0.0
aF0.0
aF0.0
aF0.0
aF0.0
aF0.0
aF0.0
aF0.0
aF0.0
aF0.0
aF0.0
aF0.0
aF0.0
aF0.0
aF0.0
aF0.0
aF0.0
aF0.0
aF0.0
aF0.0
aF0.0
aF0.0
aF0.0
aF0.0
aF0.0
aF0.0
aF0.0
aF0.0
aF0.0
aF0.0
aF0.0
aF0.0
aF0.0
aF0.0
aF0.0
aF0.0
aF0.0
aF0.0
aF0.0
aF0.0
aF0.0
aF0.0
aF0.0
aF0.0
aF0.0
aF0.0
aF0.0
aF0.0
aF0.0
aF0.0
aF0.0
aF0.0
aF0.0
aF0.0
aF0.0
aF0.0
aF0.0
aF0.0
aF0.0
aF0.0
aF0.0
aF0.0
aF0.0
aF0.0
aF0.0
aF0.0
aF0.0
aF0.0
aF0.0
aF0.0
aF0.0
aF0.0
aF0.0
aF0.0
aF0.0
aF0.0
aF0.0
aF0.0
aF0.0
aF0.0
aF0.0
aF0.0
aF0.0
aF0.0
aF0.0
aF0.0
aF0.0
aF0.0
aF0.0
aF0.0
aF0.0
aF0.0
aF0.0
aF0.0
aF0.0
aF0.0
aF0.0
aF0.0
aF0.0
aF0.0
aF0.0
aF0.0
aF0.0
aF0.0
aF0.0
aF0.0
aF0.0
aF0.0
aF0.0
aF0.0
aF0.0
aF0.0
aF0.0
aF0.0
aF0.0
aF0.0
aF0.0
aF0.0
aF0.0
aF0.0
aF0.0
aF0.0
aF0.0
aF0.0
aF0.0
aF0.0
aF0.0
aF0.0
aF0.0
aF0.0
aF0.0
aF0.0
aF0.0
aF0.0
aF0.0
aF0.0
aF0.0
aF0.0
aF0.0
aF0.0
aF0.0
aF0.0
aF0.0
aF0.0
aF0.0
aF0.0
aF0.0
aF0.0
aF0.0
aF0.0
aF0.0
aF0.0
aF0.0
aF0.0
aF0.0
aF0.0
aF0.0
aF0.0
aF0.0
aF0.0
aF0.0
aF0.0
aF0.0
aF0.0
aF0.0
aF0.0
aF0.0
aF0.0
aF0.0
aF0.0
aF0.0
aF0.0
aF0.0
aF0.0
aF0.0
aF0.0
aF0.0
aF0.0
aF0.0
aF0.0
aF0.0
aF0.0
aF0.0
aF0.0
aF0.0
aF0.0
aF0.0
aF0.0
aF0.0
aF0.0
aF0.0
aF0.0
aF0.0
aF0.0
aF0.0
aF0.0
aF0.0
aF0.0
aF0.0
aF0.0
aF0.0
aF0.0
aF0.0
aF0.0
aF0.0
aF0.0
aF0.0
aF0.0
aF0.0
aF0.0
aF0.0
aF0.0
aF0.0
aF0.0
aF0.0
aF0.0
aF0.0
aF0.0
aF0.0
aF0.0
aF0.0
aF0.0
aF0.0
aF0.0
aF0.0
aF0.0
aF0.0
aF0.0
aF0.0
aF0.0
aF0.0
aF0.0
aF0.0
aF0.0
aF0.0
aF0.0
aF0.0
aF0.0
aF0.0
aF0.0
aF0.0
aF0.0
aF0.0
aF0.0
aF0.0
aF0.0
aF0.0
aF0.0
aF0.0
aF0.0
aF0.0
aF0.0
aF0.0
aF0.0
aF0.0
aF0.0
aF0.0
aF0.0
aF0.0
aF0.0
aF0.0
aF0.0
aF0.0
aF0.0
aF0.0
aF0.0
aF0.0
aF0.0
aF0.0
aF0.0
aF0.0
aF0.0
aF0.0
aF0.0
aF0.0
aF0.0
aF0.0
aF0.0
aF0.0
aF0.0
aF0.0
aF0.0
aF0.0
aF0.0
aF0.0
aF0.0
aF0.0
aF0.0
aF0.0
aF0.0
aF0.0
aF0.0
aF0.0
aF0.0
aF0.0
aF0.0
aF0.0
aF0.0
aF0.0
aF0.0
aF0.0
aF0.0
aF0.0
aF0.0
aF0.0
aF0.0
aF0.0
aF0.0
aF0.0
aF0.0
aF0.0
aF0.0
aF0.0
aF0.0
aF0.0
aF0.0
aF0.0
aF0.0
aF0.0
aF0.0
aF0.0
aF0.0
aF0.0
aF0.0
aF0.0
aF0.0
aF0.0
aF0.0
aF0.0
aF0.0
aF0.0
aF0.0
aF0.0
aF0.0
aF0.0
aF0.0
aF0.0
aF0.0
aF0.0
aF0.0
aF0.0
aF0.0
aF0.0
aF0.0
aF0.0
aF0.0
aF0.0
aF0.0
aF0.0
aF0.0
aF0.0
aF0.0
aF0.0
aF0.0
aF0.0
aF0.0
aF0.0
aF0.0
aF0.0
aF0.0
aF0.0
aF0.0
aF0.0
aF0.0
aF0.0
aF0.0
aF0.0
aF0.0
aF0.0
aF0.0
aF0.0
aF0.0
aF0.0
aF0.0
aF0.0
aF0.0
aF0.0
aF0.0
aF0.0
aF0.0
aF0.0
aF0.0
aF0.0
aF0.0
aF0.0
aF0.0
aF0.0
aF0.0
aF0.0
aF0.0
aF0.0
aF0.0
aF0.0
aF0.0
aF0.0
aF0.0
aF0.0
aF0.0
aF0.0
aF0.0
aF0.0
aF0.0
aF0.0
aF0.0
aF0.0
aF0.0
aF0.0
aF0.0
aF0.0
aF0.0
aF0.0
aF0.0
aF0.0
aF0.0
aF0.0
aF0.0
aF0.0
aF0.0
aF0.0
aF0.0
aF0.0
aF0.0
aF0.0
aF0.0
aF0.0
aF0.0
aF0.0
aF0.0
aF0.0
aF0.0
aF0.0
aF0.0
aF0.0
aF0.0
aF0.0
aF0.0
aF0.0
aF0.0
aF0.0
aF0.0
aF0.0
aF0.0
aF0.0
aF0.0
aF0.0
aF0.0
aF0.0
aF0.0
aF0.0
aF0.0
aF0.0
aF0.0
aF0.0
aF0.0
aF0.0
aF0.0
aF0.0
aF0.0
aF0.0
aF0.0
aF0.0
aF0.0
aF0.0
aF0.0
aF0.0
aF0.0
aF0.0
aF0.0
aF0.0
aF0.0
aF0.0
aF0.0
aF0.0
aF0.0
aF0.0
aF0.0
aF0.0
aF0.0
aF0.0
aF0.0
aF0.0
aF0.0
aF0.0
aF0.0
aF0.0
aF0.0
aF0.0
aF0.0
aF0.0
aF0.0
aF0.0
aF0.0
aF0.0
aF0.0
aF0.0
aF0.0
aF0.0
aF0.0
aF0.0
aF0.0
aF0.0
aF0.0
aF0.0
aF0.0
aF0.0
aF0.0
aF0.0
aF0.0
aF0.0
aF0.0
aF0.0
aF0.0
aF0.0
aF0.0
aF0.0
aF0.0
aF0.0
aF0.0
aF0.0
aF0.0
aF0.0
aF0.0
aF0.0
aF0.0
aF0.0
aF0.0
aF0.0
aF0.0
aF0.0
aF0.0
aF0.0
aF0.0
aF0.0
aF0.0
aF0.0
aF0.0
aF0.0
aF0.0
aF0.0
aF0.0
aF0.0
aF0.0
aF0.0
aF0.0
aF0.0
aF0.0
aF0.0
aF0.0
aF0.0
aF0.0
aF0.0
aF0.0
aF0.0
aF0.0
aF0.0
aF0.0
aF0.0
aF0.0
aF0.0
aF0.0
aF0.0
aF0.0
aF0.0
aF0.0
aF0.0
aF0.0
aF0.0
aF0.0
aF0.0
aF0.0
aF0.0
aF0.0
aF0.0
aF0.0
aF0.0
aF0.0
aF0.0
aF0.0
aF0.0
aF0.0
aF0.0
aF0.0
aF0.0
aF0.0
aF0.0
aF0.0
aF0.0
aF0.0
aF0.0
aF0.0
aF0.0
aF0.0
aF0.0
aF0.0
aF0.0
aF0.0
aF0.0
aF0.0
aF0.0
aF0.0
aF0.0
aF0.0
aF0.0
aF0.0
aF0.0
aF0.0
aF0.0
aF0.0
aF0.0
aF0.0
aF0.0
aF0.0
aF0.0
aF0.0
aF0.0
aF0.0
aF0.0
aF0.0
aF0.0
aF0.0
aF0.0
aF0.0
aF0.0
aF0.0
aF0.0
aF0.0
aF0.0
aF0.0
aF0.0
aF0.0
aF0.0
aF0.0
aF0.0
aF0.0
aF0.0
aF0.0
aF0.0
aF0.0
aF0.0
aF0.0
aF0.0
aF0.0
aF0.0
aF0.0
aF0.0
aF0.0
aF0.0
aF0.0
aF0.0
aF0.0
aF0.0
aF0.0
aF0.0
aF0.0
aF0.0
aF0.0
aF0.0
aF0.0
aF0.0
aF0.0
aF0.0
aF0.0
aF0.0
aF0.0
aF0.0
aF0.0
aF0.0
aF0.0
aF0.0
aF0.0
aF0.0
aF0.0
aF0.0
aF0.0
aF0.0
aF0.0
aF0.0
aF0.0
aF0.0
aF0.0
aF0.0
aF0.0
aF0.0
aF0.0
aF0.0
aF0.0
aF0.0
aF0.0
aF0.0
aF0.0
aF0.0
aF0.0
aF0.0
aF0.0
aF0.0
aF0.0
aF0.0
aF0.0
aF0.0
aF0.0
aF0.0
aF0.0
aF0.0
aF0.0
aF0.0
aF0.0
aF-0.165819946505785
aF-0.0016124957500899262
aF0.0
aF-0.011725121506272121
aF0.0
aF0.0
aF0.0
aF0.0
aF0.0
aF0.0
aF-0.0026596162006490773
aF0.0
aF0.0
aF0.0
aF0.0
aF0.0
aF0.0
aF0.0
aF0.0
aF0.0
aF0.0
aF0.0
aF0.0
aF0.0
aF0.0
aF0.0
aF0.0
aF0.0
aF0.0
aF0.0
aF0.0
aF0.0
aF0.0
aF0.0
aF0.0
aF0.0
aF0.0
aF0.0
aF0.0
aF0.0
aF0.0
aF0.0
aF0.0
aF0.0
aF0.0
aF0.0
aF0.0
aF0.0
aF0.0
aF0.0
aF0.0
aF0.0
aF0.0
aF0.0
aF0.0
aF0.0
aF0.0
aF0.0
aF0.0
aF0.0
aF0.0
aF0.0
aF0.0
aF0.0
aF0.0
aF0.0
aF0.0
aF0.0
aF0.0
aF0.0
aF0.0
aF0.0
aF0.0
aF0.0
aF0.0
aF-0.0004178508444006839
aF0.0
aF0.0
aF0.0
aF0.0
aF0.0002618
aF0.0
aF0.0
aF0.0
aF0.0
aF0.0
aF0.0
aF0.0
aF0.0
aF0.0
aF0.0
aF0.0
aF0.0
aF0.0
aF0.0
aF0.0
aF0.0
aF0.0
aF0.0
aF0.0
aF-0.010000000000000002
aF0.0
aF0.0
aF0.0
aF0.0
aF0.0
aF0.0
aF0.0
aF0.0
aF0.0
aF0.0
aF0.0
aF0.0
aF0.0
aF0.0
aF0.0
aF0.0
aF0.0
aF0.0
aF0.0
aF0.0
aF0.0
aF0.0
aF0.0
aF0.0
aF0.0
aF0.0
aF0.0
aF0.0
aF0.0
aF0.0
aF0.0
aF0.0
aF0.0
aF0.0
aF0.0
aF0.0
aF0.0
aF0.0
aF0.0
aF0.0
aF0.0
aF0.0
aF0.0
aF0.0
aF0.0
aF0.0
aF0.0
aF0.0
aF0.0
aF0.0
aF0.0
aF0.0
aF0.0
aF0.0
aF0.0
aF0.0
aF0.0
aF0.0
aF0.0
aF0.0
aF0.0
aF0.0
aF0.0
aF0.0
aF0.0
aF0.0
aF0.0
aF0.0
aF0.0
aF0.0
aF0.0
aF0.0
aF0.0
aF0.005000000000000001
aF0.0
aF0.0
aF0.0
aF-0.00011545
aF0.0
aF0.0
aF0.0
aF0.0
aF0.0
aF0.0
aF0.0
aF0.0
aF0.0
aF0.0
aF0.0
aF0.0
aF0.0
aF0.0
aF0.0
aF0.0
aF0.0
aF0.0
aF0.0
aF0.0
aF0.0
aF0.0
aF0.0
aF0.0
aF0.0
aF0.0
aF0.0
aF0.0
aF0.0
aF0.0
aF0.0
aF0.0
aF0.0
aF0.0
aF0.0
aF0.0
aF0.0
aF0.0
aF0.0
aF0.0
aF0.0
aF0.0
aF0.0
aF0.0
aF0.0
aF0.0
aF0.0
aF0.0
aF0.0
aF0.0
aF0.0
aF0.0
aF0.0
aF0.0
aF0.0007576000000000001
aF0.0
aF0.0
aF0.0
aF0.0
aF0.0
aF0.0
aF0.0
aF0.0
aF0.0
aF0.0
aF0.0
aF0.0
aF0.0
aF0.0
aF0.0
aF0.0
aF0.0
aF0.0
aF0.0
aF0.0
aF0.0
aF0.0
aF0.0
aF0.0
aF0.0
aF0.0
aF0.0
aF0.0
aF0.0
aF0.0
aF0.0
aF0.0
aF0.0
aF0.0
aF0.0
aF0.0
aF0.0
aF0.0
aF0.0
aF0.0
aF0.0
aF0.0
aF0.0
aF0.0
aF0.0
aF0.0
aF0.0
aF0.0
aF0.0
aF0.0
aF0.0
aF0.0
aF0.0
aF0.0
aF0.0
aF0.0
aF0.0
aF0.0
aF0.0
aF0.0
aF0.0
aF0.0
aF0.0
aF0.0
aF0.0
aF0.0
aF0.0
aF0.0
aF0.0
aF0.0
aF0.0
aF0.0
aF0.0
aF0.0
aF0.0
aF0.0
aF0.0
aF0.0
aF0.0
aF0.0
aF0.0
aF0.0
aF0.0
aF0.0
aF0.0
aF0.0
aF0.0
aF0.0
aF0.0
aF0.0
aF0.0
aF0.0
aF0.0
aF0.0
aF0.0
aF0.0
aF0.0
aF0.0
aF0.0
aF0.0
aF0.0
aF0.0
aF0.0
aF0.0
aF0.0
aF0.0
aF0.0
aF0.0
aF0.0
aF0.0
aF0.0
aF0.0
aF0.0
aF0.0
aF0.0
aF0.0
aF0.0
aF0.0
aF0.0
aF0.0
aF0.0
aF0.0
asb.